target datalayout = "e-m:e-p270:32:32-p271:32:32-p272:64:64-i64:64-i128:128-f80:128-n8:16:32:64-S128"
target triple = "x86_64-pc-linux-gnu"

%struct.MvcManagerStruct = type { ptr, ptr, ptr, ptr }
%struct.MvcCoverStruct = type { i32, i32, i32, %struct.MvcListStruct, ptr, i32, ptr, ptr, ptr }
%struct.MvcListStruct = type { ptr, ptr, i32 }

; Function Attrs: nounwind uwtable
define ptr @Mvc_CoverClone(ptr noundef %0) #0 {
  %2 = alloca ptr, align 8
  %3 = alloca ptr, align 8
  store ptr %0, ptr %2, align 8, !tbaa !13
  call void @llvm.lifetime.start.p0(i64 8, ptr %3) #5
  %4 = load ptr, ptr %2, align 8, !tbaa !13
  %5 = getelementptr inbounds nuw %struct.MvcCoverStruct, ptr %4, i32 0, i32 8
  %6 = load ptr, ptr %5, align 8, !tbaa !15
  %7 = getelementptr inbounds nuw %struct.MvcManagerStruct, ptr %6, i32 0, i32 0
  %8 = load ptr, ptr %7, align 8, !tbaa !10
  %9 = call ptr @Extra_MmFixedEntryFetch(ptr noundef %8)
  store ptr %9, ptr %3, align 8, !tbaa !13
  %10 = load ptr, ptr %2, align 8, !tbaa !13
  %11 = getelementptr inbounds nuw %struct.MvcCoverStruct, ptr %10, i32 0, i32 8
  %12 = load ptr, ptr %11, align 8, !tbaa !15
  %13 = load ptr, ptr %3, align 8, !tbaa !13
  %14 = getelementptr inbounds nuw %struct.MvcCoverStruct, ptr %13, i32 0, i32 8
  store ptr %12, ptr %14, align 8, !tbaa !15
  %15 = load ptr, ptr %2, align 8, !tbaa !13
  %16 = getelementptr inbounds nuw %struct.MvcCoverStruct, ptr %15, i32 0, i32 2
  %17 = load i32, ptr %16, align 8, !tbaa !21
  %18 = load ptr, ptr %3, align 8, !tbaa !13
  %19 = getelementptr inbounds nuw %struct.MvcCoverStruct, ptr %18, i32 0, i32 2
  store i32 %17, ptr %19, align 8, !tbaa !21
  %20 = load ptr, ptr %2, align 8, !tbaa !13
  %21 = getelementptr inbounds nuw %struct.MvcCoverStruct, ptr %20, i32 0, i32 0
  %22 = load i32, ptr %21, align 8, !tbaa !22
  %23 = load ptr, ptr %3, align 8, !tbaa !13
  %24 = getelementptr inbounds nuw %struct.MvcCoverStruct, ptr %23, i32 0, i32 0
  store i32 %22, ptr %24, align 8, !tbaa !22
  %25 = load ptr, ptr %2, align 8, !tbaa !13
  %26 = getelementptr inbounds nuw %struct.MvcCoverStruct, ptr %25, i32 0, i32 1
  %27 = load i32, ptr %26, align 4, !tbaa !23
  %28 = load ptr, ptr %3, align 8, !tbaa !13
  %29 = getelementptr inbounds nuw %struct.MvcCoverStruct, ptr %28, i32 0, i32 1
  store i32 %27, ptr %29, align 4, !tbaa !23
  %30 = load ptr, ptr %3, align 8, !tbaa !13
  %31 = getelementptr inbounds nuw %struct.MvcCoverStruct, ptr %30, i32 0, i32 3
  %32 = getelementptr inbounds nuw %struct.MvcListStruct, ptr %31, i32 0, i32 2
  store i32 0, ptr %32, align 8, !tbaa !24
  %33 = load ptr, ptr %3, align 8, !tbaa !13
  %34 = getelementptr inbounds nuw %struct.MvcCoverStruct, ptr %33, i32 0, i32 3
  %35 = getelementptr inbounds nuw %struct.MvcListStruct, ptr %34, i32 0, i32 0
  store ptr null, ptr %35, align 8, !tbaa !25
  %36 = load ptr, ptr %3, align 8, !tbaa !13
  %37 = getelementptr inbounds nuw %struct.MvcCoverStruct, ptr %36, i32 0, i32 3
  %38 = getelementptr inbounds nuw %struct.MvcListStruct, ptr %37, i32 0, i32 1
  store ptr null, ptr %38, align 8, !tbaa !26
  %39 = load ptr, ptr %3, align 8, !tbaa !13
  %40 = getelementptr inbounds nuw %struct.MvcCoverStruct, ptr %39, i32 0, i32 5
  store i32 0, ptr %40, align 8, !tbaa !27
  %41 = load ptr, ptr %3, align 8, !tbaa !13
  %42 = getelementptr inbounds nuw %struct.MvcCoverStruct, ptr %41, i32 0, i32 4
  store ptr null, ptr %42, align 8, !tbaa !28
  %43 = load ptr, ptr %3, align 8, !tbaa !13
  %44 = getelementptr inbounds nuw %struct.MvcCoverStruct, ptr %43, i32 0, i32 7
  store ptr null, ptr %44, align 8, !tbaa !29
  %45 = load ptr, ptr %3, align 8, !tbaa !13
  %46 = getelementptr inbounds nuw %struct.MvcCoverStruct, ptr %45, i32 0, i32 6
  store ptr null, ptr %46, align 8, !tbaa !30
  %47 = load ptr, ptr %3, align 8, !tbaa !13
  call void @llvm.lifetime.end.p0(i64 8, ptr %3) #5
  ret ptr %47
}