; Function Attrs: nounwind uwtable
define noundef ptr @Mvc_CoverClone(ptr noundef readonly captures(none) %0) local_unnamed_addr #0 {
  %2 = getelementptr inbounds nuw i8, ptr %0, i64 72
  %3 = load ptr, ptr %2, align 8, !tbaa !9
  %4 = load ptr, ptr %3, align 8, !tbaa !3
  %5 = tail call ptr @Extra_MmFixedEntryFetch(ptr noundef %4) #7
  %6 = load ptr, ptr %2, align 8, !tbaa !9
  %7 = getelementptr inbounds nuw i8, ptr %5, i64 72
  store ptr %6, ptr %7, align 8, !tbaa !9
  %8 = getelementptr inbounds nuw i8, ptr %0, i64 8
  %9 = load i32, ptr %8, align 8, !tbaa !17
  %10 = getelementptr inbounds nuw i8, ptr %5, i64 8
  store i32 %9, ptr %10, align 8, !tbaa !17
  %11 = load i32, ptr %0, align 8, !tbaa !18
  store i32 %11, ptr %5, align 8, !tbaa !18
  %12 = getelementptr inbounds nuw i8, ptr %0, i64 4
  %13 = load i32, ptr %12, align 4, !tbaa !19
  %14 = getelementptr inbounds nuw i8, ptr %5, i64 4
  store i32 %13, ptr %14, align 4, !tbaa !19
  %15 = getelementptr inbounds nuw i8, ptr %5, i64 16
  %16 = getelementptr inbounds nuw i8, ptr %5, i64 48
  store i32 0, ptr %16, align 8, !tbaa !20
  %17 = getelementptr inbounds nuw i8, ptr %5, i64 40
  store ptr null, ptr %17, align 8, !tbaa !21
  %18 = getelementptr inbounds nuw i8, ptr %5, i64 56
  tail call void @llvm.memset.p0.i64(ptr noundef nonnull align 8 dereferenceable(20) %15, i8 0, i64 20, i1 false)
  tail call void @llvm.memset.p0.i64(ptr noundef nonnull align 8 dereferenceable(16) %18, i8 0, i64 16, i1 false)
  ret ptr %5
}